target datalayout = "e-m:e-p270:32:32-p271:32:32-p272:64:64-i64:64-i128:128-f80:128-n8:16:32:64-S128"
target triple = "x86_64-pc-linux-gnu"

%"class.std::filesystem::__cxx11::path" = type { %"class.std::__cxx11::basic_string", %"struct.std::filesystem::__cxx11::path::_List" }
%"class.std::__cxx11::basic_string" = type { %"struct.std::__cxx11::basic_string<char>::_Alloc_hider", i64, %union.anon }
%"struct.std::__cxx11::basic_string<char>::_Alloc_hider" = type { ptr }
%union.anon = type { i64, [8 x i8] }
%"struct.std::filesystem::__cxx11::path::_List" = type { %"class.std::unique_ptr" }
%"class.std::unique_ptr" = type { %"struct.std::__uniq_ptr_data" }
%"struct.std::__uniq_ptr_data" = type { %"class.std::__uniq_ptr_impl" }
%"class.std::__uniq_ptr_impl" = type { %"class.std::tuple" }
%"class.std::tuple" = type { %"struct.std::_Tuple_impl" }
%"struct.std::_Tuple_impl" = type { %"struct.std::_Head_base.1" }
%"struct.std::_Head_base.1" = type { ptr }

@.str.1 = private unnamed_addr constant [3 x i8] c"%d\00", align 1
@.str.2 = private unnamed_addr constant [122 x i8] c"generated/home/dtcxzyw/WorkSpace/Projects/compilers/llvm-opt-benchmark/bench/gromacs/gromacs/src/gromacs/fileio/groio.cpp\00", align 1
@.str.3 = private unnamed_addr constant [62 x i8] c"gro file does not have the number of atoms on the second line\00", align 1

; Function Attrs: mustprogress uwtable
define internal void @_ZL15get_coordnum_fpP8_IO_FILEPcPi(ptr noundef %0, ptr noundef %1, ptr noundef %2) #0 personality ptr @__gxx_personality_v0 {
  %4 = alloca ptr, align 8
  %5 = alloca ptr, align 8
  %6 = alloca ptr, align 8
  %7 = alloca [4097 x i8], align 16
  %8 = alloca %"class.std::filesystem::__cxx11::path", align 8
  %9 = alloca ptr, align 8
  %10 = alloca i32, align 4
  store ptr %0, ptr %4, align 8, !tbaa !11
  store ptr %1, ptr %5, align 8, !tbaa !13
  store ptr %2, ptr %6, align 8, !tbaa !9
  call void @llvm.lifetime.start.p0(i64 4097, ptr %7) #13
  %11 = load ptr, ptr %5, align 8, !tbaa !13
  %12 = load ptr, ptr %4, align 8, !tbaa !11
  %13 = call noundef ptr @_Z6fgets2PciP8_IO_FILE(ptr noundef %11, i32 noundef 4096, ptr noundef %12)
  %14 = getelementptr inbounds [4097 x i8], ptr %7, i64 0, i64 0
  %15 = load ptr, ptr %4, align 8, !tbaa !11
  %16 = call noundef ptr @_Z6fgets2PciP8_IO_FILE(ptr noundef %14, i32 noundef 4096, ptr noundef %15)
  %17 = getelementptr inbounds [4097 x i8], ptr %7, i64 0, i64 0
  %18 = load ptr, ptr %6, align 8, !tbaa !9
  %19 = call i32 (ptr, ptr, ...) @__isoc99_sscanf(ptr noundef %17, ptr noundef @.str.1, ptr noundef %18) #13
  %20 = icmp ne i32 %19, 1
  br i1 %20, label %21, label %27

21:                                               ; preds = %3
  call void @llvm.lifetime.start.p0(i64 40, ptr %8) #13
  call void @_ZNSt10filesystem7__cxx114pathC2IA122_cS1_EERKT_NS1_6formatE(ptr noundef nonnull align 8 dereferenceable(40) %8, ptr noundef nonnull align 1 dereferenceable(122) @.str.2, i8 noundef zeroext 2)
  invoke void (i32, ptr, i32, ptr, ...) @_Z9gmx_fataliRKNSt10filesystem7__cxx114pathEiPKcz(i32 noundef 0, ptr noundef nonnull align 8 dereferenceable(40) %8, i32 noundef 66, ptr noundef @.str.3) #14
          to label %22 unwind label %23

22:                                               ; preds = %21
  unreachable

23:                                               ; preds = %21
  %24 = landingpad { ptr, i32 }
          cleanup
  %25 = extractvalue { ptr, i32 } %24, 0
  store ptr %25, ptr %9, align 8
  %26 = extractvalue { ptr, i32 } %24, 1
  store i32 %26, ptr %10, align 4
  call void @_ZNSt10filesystem7__cxx114pathD2Ev(ptr noundef nonnull align 8 dereferenceable(40) %8) #13
  call void @llvm.lifetime.end.p0(i64 40, ptr %8) #13
  call void @llvm.lifetime.end.p0(i64 4097, ptr %7) #13
  br label %28

27:                                               ; preds = %3
  call void @llvm.lifetime.end.p0(i64 4097, ptr %7) #13
  ret void

28:                                               ; preds = %23
  %29 = load ptr, ptr %9, align 8
  %30 = load i32, ptr %10, align 4
  %31 = insertvalue { ptr, i32 } poison, ptr %29, 0
  %32 = insertvalue { ptr, i32 } %31, i32 %30, 1
  resume { ptr, i32 } %32
}