; Function Attrs: mustprogress uwtable
define internal fastcc void @_ZL15get_coordnum_fpP8_IO_FILEPcPi(ptr noundef %0, ptr noundef nonnull %1, ptr noundef %2) unnamed_addr #0 personality ptr @__gxx_personality_v0 {
  %4 = alloca [4097 x i8], align 16
  %5 = alloca %"class.std::filesystem::__cxx11::path", align 8
  call void @llvm.lifetime.start.p0(i64 4097, ptr nonnull %4) #19
  %6 = tail call noundef ptr @_Z6fgets2PciP8_IO_FILE(ptr noundef nonnull %1, i32 noundef 4096, ptr noundef %0)
  %7 = call noundef ptr @_Z6fgets2PciP8_IO_FILE(ptr noundef nonnull %4, i32 noundef 4096, ptr noundef %0)
  %8 = call i32 (ptr, ptr, ...) @__isoc99_sscanf(ptr noundef nonnull %4, ptr noundef nonnull @.str.1, ptr noundef %2) #19
  %.not = icmp eq i32 %8, 1
  br i1 %.not, label %13, label %9

9:                                                ; preds = %3
  call void @llvm.lifetime.start.p0(i64 40, ptr nonnull %5) #19
  call void @_ZNSt10filesystem7__cxx114pathC2IA122_cS1_EERKT_NS1_6formatE(ptr noundef nonnull align 8 dereferenceable(40) %5, ptr noundef nonnull align 1 dereferenceable(122) @.str.2, i8 noundef zeroext 2)
  invoke void (i32, ptr, i32, ptr, ...) @_Z9gmx_fataliRKNSt10filesystem7__cxx114pathEiPKcz(i32 noundef 0, ptr noundef nonnull align 8 dereferenceable(40) %5, i32 noundef 66, ptr noundef nonnull @.str.3) #20
          to label %10 unwind label %11

10:                                               ; preds = %9
  unreachable

11:                                               ; preds = %9
  %12 = landingpad { ptr, i32 }
          cleanup
  call void @_ZNSt10filesystem7__cxx114pathD2Ev(ptr noundef nonnull align 8 dereferenceable(40) %5) #19
  call void @llvm.lifetime.end.p0(i64 40, ptr nonnull %5) #19
  call void @llvm.lifetime.end.p0(i64 4097, ptr nonnull %4) #19
  resume { ptr, i32 } %12

13:                                               ; preds = %3
  call void @llvm.lifetime.end.p0(i64 4097, ptr nonnull %4) #19
  ret void
}